target datalayout = "e-m:e-p270:32:32-p271:32:32-p272:64:64-i64:64-i128:128-f80:128-n8:16:32:64-S128"
target triple = "x86_64-pc-linux-gnu"

%struct.Vec_Int_t_ = type { i32, i32, ptr }

@.str.5 = private unnamed_addr constant [2 x i8] c"\0A\00", align 1
@.str.6 = private unnamed_addr constant [6 x i8] c"%s: \0A\00", align 1

; Function Attrs: inlinehint nounwind uwtable
define internal i32 @Abc_Lit2Var(i32 noundef %0) #1 {
  %2 = alloca i32, align 4
  store i32 %0, ptr %2, align 4, !tbaa !7
  %3 = load i32, ptr %2, align 4, !tbaa !7
  %4 = ashr i32 %3, 1
  ret i32 %4
}

; Function Attrs: nounwind uwtable
define void @Acb_NtkPrintVecWin(ptr noundef %0, ptr noundef %1, ptr noundef %2) #0 {
  %4 = alloca ptr, align 8
  %5 = alloca ptr, align 8
  %6 = alloca ptr, align 8
  %7 = alloca i32, align 4
  store ptr %0, ptr %4, align 8, !tbaa !28
  store ptr %1, ptr %5, align 8, !tbaa !9
  store ptr %2, ptr %6, align 8, !tbaa !85
  call void @llvm.lifetime.start.p0(i64 4, ptr %7) #12
  %8 = load ptr, ptr %6, align 8, !tbaa !85
  %9 = call i32 (ptr, ...) @printf(ptr noundef @.str.6, ptr noundef %8)
  store i32 0, ptr %7, align 4, !tbaa !7
  br label %10

10:                                               ; preds = %26, %3
  %11 = load i32, ptr %7, align 4, !tbaa !7
  %12 = load ptr, ptr %5, align 8, !tbaa !9
  %13 = getelementptr inbounds nuw %struct.Vec_Int_t_, ptr %12, i32 0, i32 1
  %14 = load i32, ptr %13, align 4, !tbaa !24
  %15 = icmp slt i32 %11, %14
  br i1 %15, label %16, label %29

16:                                               ; preds = %10
  %17 = load ptr, ptr %4, align 8, !tbaa !28
  %18 = load ptr, ptr %5, align 8, !tbaa !9
  %19 = getelementptr inbounds nuw %struct.Vec_Int_t_, ptr %18, i32 0, i32 2
  %20 = load ptr, ptr %19, align 8, !tbaa !27
  %21 = load i32, ptr %7, align 4, !tbaa !7
  %22 = sext i32 %21 to i64
  %23 = getelementptr inbounds i32, ptr %20, i64 %22
  %24 = load i32, ptr %23, align 4, !tbaa !7
  %25 = call i32 @Abc_Lit2Var(i32 noundef %24)
  call void @Acb_NtkPrintNode(ptr noundef %17, i32 noundef %25)
  br label %26

26:                                               ; preds = %16
  %27 = load i32, ptr %7, align 4, !tbaa !7
  %28 = add nsw i32 %27, 1
  store i32 %28, ptr %7, align 4, !tbaa !7
  br label %10, !llvm.loop !88

29:                                               ; preds = %10
  %30 = call i32 (ptr, ...) @printf(ptr noundef @.str.5)
  call void @llvm.lifetime.end.p0(i64 4, ptr %7) #12
  ret void
}